(dp0
S'cookies'
p1
(dp2
S'webwx_data_ticket'
p3
S'gSd5uK1A7cVQ8JFodGJKe6os'
p4
sS'wxuin'
p5
S'2774260834'
p6
sS'webwxuvid'
p7
S'a59d4ef0a0c9f96e22dedc56f39ce8a18f3784947fa729eb3a51ea6a71370f833657f318d0a08f562982cf6fb1fc0500'
p8
sS'webwx_auth_ticket'
p9
S'CIsBEOy9vPIKGoABsKGIET21t6G/XBZwmY0kJKSUsXwSbWyDFBbu81PUKfb3id/p9JO4xCXEIfh48iVdwUejgpBq7332H0eMoJiRxoMvdmIyh1Wx2UYPRdvi99AUPVbwNGVYm6xIPPBAD5WJfj/fkBmjmsz5iFiVn0xzOa0umnmu0KtN19bqFHW3ITI='
p10
sS'wxloadtime'
p11
S'1539924950'
p12
sS'wxsid'
p13
S'3scqbBNZi7OqaTkv'
p14
sS'mm_lang'
p15
S'zh_CN'
p16
ssS'version'
p17
S'1.3.10'
p18
sS'storage'
p19
(dp20
S'userName'
p21
V@548650da7b0ff4156a856fa6c4e0c34b28c0b77417defbb83971fcca30c1173c
p22
sS'lastInputUserName'
p23
NsS'memberList'
p24
ccopy_reg
_reconstructor
p25
(citchat.storage.templates
ContactList
p26
c__builtin__
list
p27
(lp28
g25
(citchat.storage.templates
User
p29
c__builtin__
dict
p30
(dp31
S'UserName'
p32
g22
sS'City'
p33
S''
p34
sS'DisplayName'
p35
g34
sS'UniFriend'
p36
I0
sS'OwnerUin'
p37
I0
sS'MemberList'
p38
g25
(g26
g27
(lp39
tp40
Rp41
I1
bsS'PYQuanPin'
p42
V
p43
sS'RemarkPYInitial'
p44
g43
sS'Uin'
p45
I2774260834
sS'AppAccountFlag'
p46
I0
sS'VerifyFlag'
p47
I0
sS'Province'
p48
g34
sS'KeyWord'
p49
g34
sS'RemarkName'
p50
g43
sS'PYInitial'
p51
g43
sS'ChatRoomId'
p52
I0
sS'HideInputBarFlag'
p53
I0
sVHeadImgFlag
p54
I1
sS'EncryChatRoomId'
p55
g34
sS'AttrStatus'
p56
I0
sS'SnsFlag'
p57
I0
sS'MemberCount'
p58
I0
sVWebWxPluginSwitch
p59
I0
sS'Alias'
p60
g34
sS'Signature'
p61
V\u627e\u4e2a\u65f6\u95f4\u53bb\u65c5\u884c
p62
sS'ContactFlag'
p63
I0
sS'NickName'
p64
V\u4e13\u603c\u4e8c\u72d7\u54c8\u58eb\u5947\u7684\u673a\u5668\u732b\uff01
p65
sS'RemarkPYQuanPin'
p66
g43
sS'HeadImgUrl'
p67
V/cgi-bin/mmwebwx-bin/webwxgeticon?seq=24354576&username=@548650da7b0ff4156a856fa6c4e0c34b28c0b77417defbb83971fcca30c1173c&skey=@crypt_7ea77ac1_98bcb84c503ce7119c40f653bb5ba7ff
p68
sS'Sex'
p69
I2
sS'StarFriend'
p70
I0
sS'Statues'
p71
I0
stp72
Rp73
I1
bag25
(g29
g30
(dp74
VUserName
p75
V@47e492b71bc346c09aadd44ffbf07b776eaf0d84289f75190961de709b21b30a
p76
sVCity
p77
V\u5b81\u6ce2
p78
sVSnsFlag
p79
I49
sVDisplayName
p80
g43
sVUniFriend
p81
I0
sVMemberCount
p82
I0
sVOwnerUin
p83
I0
sVMemberList
p84
g41
sVAlias
p85
g43
sVPYQuanPin
p86
V?
p87
sVSignature
p88
g43
sVRemarkPYInitial
p89
g43
sVContactFlag
p90
I3
sVUin
p91
I0
sVNickName
p92
V\uabed
p93
sVAppAccountFlag
p94
I0
sVVerifyFlag
p95
I0
sVRemarkPYQuanPin
p96
g43
sVHeadImgUrl
p97
V/cgi-bin/mmwebwx-bin/webwxgeticon?seq=673810124&username=@47e492b71bc346c09aadd44ffbf07b776eaf0d84289f75190961de709b21b30a&skey=@crypt_7ea77ac1_98bcb84c503ce7119c40f653bb5ba7ff
p98
sVKeyWord
p99
g43
sVProvince
p100
V\u6d59\u6c5f
p101
sVPYInitial
p102
g87
sVRemarkName
p103
g43
sVIsOwner
p104
I0
sVSex
p105
I1
sVStarFriend
p106
I0
sVHideInputBarFlag
p107
I0
sVChatRoomId
p108
I0
sVEncryChatRoomId
p109
g43
sVAttrStatus
p110
I229413
sVStatues
p111
I0
stp112
Rp113
I1
batp114
Rp115
I1
bsS'chatroomList'
p116
g25
(g26
g27
(lp117
g25
(citchat.storage.templates
Chatroom
p118
g30
(dp119
VUserName
p120
V@@a6ce53894c42fb8181c9acce42b832af3edb60c4d56021ba6bbd76cd96907c71
p121
sVCity
p122
g43
sVDisplayName
p123
g43
sVUniFriend
p124
I0
sS'Self'
p125
g25
(g29
g30
(dp126
g32
g22
sg33
g34
sg35
g34
sg36
I0
sg37
I0
sg38
g25
(g26
g27
(lp127
tp128
Rp129
I1
bsg42
g43
sg44
g43
sg45
I2774260834
sg46
I0
sg47
I0
sg48
g34
sg49
g34
sg50
g43
sg51
g43
sg52
I0
sg53
I0
sg54
I1
sg55
g34
sg56
I0
sg57
I0
sg58
I0
sg59
I0
sg60
g34
sg61
g62
sg63
I0
sg64
g65
sg66
g43
sg67
g68
sg69
I2
sg70
I0
sg71
I0
stp130
Rp131
I1
bsVMemberList
p132
g25
(g26
g27
(lp133
tp134
Rp135
I1
bsVPYQuanPin
p136
g43
sVRemarkPYInitial
p137
g43
sVSex
p138
I0
sVAppAccountFlag
p139
I0
sVVerifyFlag
p140
I0
sVProvince
p141
g43
sVKeyWord
p142
g43
sVRemarkName
p143
g43
sVPYInitial
p144
g43
sVIsOwner
p145
I0
sVChatRoomId
p146
I0
sVHideInputBarFlag
p147
I0
sVEncryChatRoomId
p148
g43
sVAttrStatus
p149
I0
sVSnsFlag
p150
I0
sVMemberCount
p151
I3
sVOwnerUin
p152
I0
sVAlias
p153
g43
sS'IsAdmin'
p154
NsVSignature
p155
g43
sVContactFlag
p156
I0
sVNickName
p157
V\u6d4b\u8bd5\u673a\u5668\u4eba
p158
sVRemarkPYQuanPin
p159
g43
sVHeadImgUrl
p160
V/cgi-bin/mmwebwx-bin/webwxgetheadimg?seq=0&username=@@a6ce53894c42fb8181c9acce42b832af3edb60c4d56021ba6bbd76cd96907c71&skey=@crypt_7ea77ac1_98bcb84c503ce7119c40f653bb5ba7ff
p161
sVUin
p162
I0
sVStarFriend
p163
I0
sVStatues
p164
I1
stp165
Rp166
I1
bag25
(g118
g30
(dp167
VUserName
p168
V@@0899608f297712dde8edf7dcd63a4afded267d2b0e06fa03b7c7d1663e7ef916
p169
sVCity
p170
g43
sVDisplayName
p171
g43
sVUniFriend
p172
I0
sg125
g25
(g29
g30
(dp173
g32
g22
sg33
g34
sg35
g34
sg36
I0
sg37
I0
sg38
g25
(g26
g27
(lp174
tp175
Rp176
I1
bsg42
g43
sg44
g43
sg45
I2774260834
sg46
I0
sg47
I0
sg48
g34
sg49
g34
sg50
g43
sg51
g43
sg52
I0
sg53
I0
sg54
I1
sg55
g34
sg56
I0
sg57
I0
sg58
I0
sg59
I0
sg60
g34
sg61
g62
sg63
I0
sg64
g65
sg66
g43
sg67
g68
sg69
I2
sg70
I0
sg71
I0
stp177
Rp178
I1
bsVMemberList
p179
g25
(g26
g27
(lp180
tp181
Rp182
I1
bsVPYQuanPin
p183
g43
sVRemarkPYInitial
p184
g43
sVSex
p185
I0
sVAppAccountFlag
p186
I0
sVVerifyFlag
p187
I0
sVProvince
p188
g43
sVKeyWord
p189
g43
sVRemarkName
p190
g43
sVPYInitial
p191
g43
sVIsOwner
p192
I0
sVChatRoomId
p193
I0
sVHideInputBarFlag
p194
I0
sVEncryChatRoomId
p195
g43
sVAttrStatus
p196
I0
sVSnsFlag
p197
I0
sVMemberCount
p198
I8
sVOwnerUin
p199
I0
sVAlias
p200
g43
sg154
NsVSignature
p201
g43
sVContactFlag
p202
I0
sVNickName
p203
Vphp\u662f\u4e16\u754c\u4e0a\u6700\u597d\u7684\u8bed\u8a00\uff0cVUE\u662f\u6700\u597d\u7684
p204
sVRemarkPYQuanPin
p205
g43
sVHeadImgUrl
p206
V/cgi-bin/mmwebwx-bin/webwxgetheadimg?seq=0&username=@@0899608f297712dde8edf7dcd63a4afded267d2b0e06fa03b7c7d1663e7ef916&skey=@crypt_7ea77ac1_98bcb84c503ce7119c40f653bb5ba7ff
p207
sVUin
p208
I0
sVStarFriend
p209
I0
sVStatues
p210
I1
stp211
Rp212
I1
bag25
(g118
g30
(dp213
VUserName
p214
V@@1e79619c8aace377c233abbdada60236c256a6b85229624c757afc4617ea7cae
p215
sVCity
p216
g43
sVDisplayName
p217
g43
sVUniFriend
p218
I0
sg125
g25
(g29
g30
(dp219
g32
g22
sg33
g34
sg35
g34
sg36
I0
sg37
I0
sg38
g25
(g26
g27
(lp220
tp221
Rp222
I1
bsg42
g43
sg44
g43
sg45
I2774260834
sg46
I0
sg47
I0
sg48
g34
sg49
g34
sg50
g43
sg51
g43
sg52
I0
sg53
I0
sg54
I1
sg55
g34
sg56
I0
sg57
I0
sg58
I0
sg59
I0
sg60
g34
sg61
g62
sg63
I0
sg64
g65
sg66
g43
sg67
g68
sg69
I2
sg70
I0
sg71
I0
stp223
Rp224
I1
bsVMemberList
p225
g25
(g26
g27
(lp226
tp227
Rp228
I1
bsVPYQuanPin
p229
g43
sVRemarkPYInitial
p230
g43
sVSex
p231
I0
sVAppAccountFlag
p232
I0
sVVerifyFlag
p233
I0
sVProvince
p234
g43
sVKeyWord
p235
g43
sVRemarkName
p236
g43
sVPYInitial
p237
g43
sVIsOwner
p238
I0
sVChatRoomId
p239
I0
sVHideInputBarFlag
p240
I0
sVEncryChatRoomId
p241
g43
sVAttrStatus
p242
I0
sVSnsFlag
p243
I0
sVMemberCount
p244
I39
sVOwnerUin
p245
I0
sVAlias
p246
g43
sg154
NsVSignature
p247
g43
sVContactFlag
p248
I0
sVNickName
p249
V\U0001f699 \u8c1c\u4e4b\u81ea\u4fe1\u2461
p250
sVRemarkPYQuanPin
p251
g43
sVHeadImgUrl
p252
V/cgi-bin/mmwebwx-bin/webwxgetheadimg?seq=0&username=@@1e79619c8aace377c233abbdada60236c256a6b85229624c757afc4617ea7cae&skey=@crypt_7ea77ac1_98bcb84c503ce7119c40f653bb5ba7ff
p253
sVUin
p254
I0
sVStarFriend
p255
I0
sVStatues
p256
I0
stp257
Rp258
I1
batp259
Rp260
I1
bsS'nickName'
p261
g65
sS'mpList'
p262
g25
(g26
g27
(lp263
g25
(citchat.storage.templates
MassivePlatform
p264
g30
(dp265
VUserName
p266
V@284c36516360362b2f7df00001c05c00
p267
sVCity
p268
V\u5e7f\u5dde
p269
sVSnsFlag
p270
I0
sVDisplayName
p271
g43
sVUniFriend
p272
I0
sVMemberCount
p273
I0
sVOwnerUin
p274
I0
sVMemberList
p275
g41
sVAlias
p276
g43
sVPYQuanPin
p277
Vweixinyouhu
p278
sVSignature
p279
V\u5173\u6ce8\u5fae\u4fe1\u6e38\u620f\u5b98\u65b9\u516c\u4f17\u5e10\u53f7\uff0c\u5373\u65f6\u6536\u53d6\u6e38\u620f\u8baf\u606f\uff0c\u8fd8\u80fd\u67e5\u770b\u5404\u6e38\u620f\u653b\u7565\uff0c\u62a2\u5148\u4f53\u9a8c\u6d3b\u52a8\uff01
p280
sVRemarkPYInitial
p281
g43
sVContactFlag
p282
I3
sVUin
p283
I0
sVNickName
p284
V\u5fae\u4fe1\u6e38\u620f
p285
sVAppAccountFlag
p286
I0
sVVerifyFlag
p287
I24
sVRemarkPYQuanPin
p288
g43
sVHeadImgUrl
p289
V/cgi-bin/mmwebwx-bin/webwxgeticon?seq=627210067&username=@284c36516360362b2f7df00001c05c00&skey=@crypt_7ea77ac1_98bcb84c503ce7119c40f653bb5ba7ff
p290
sVKeyWord
p291
Vgh_
p292
sVProvince
p293
V\u5e7f\u4e1c
p294
sVPYInitial
p295
VWXYH
p296
sVRemarkName
p297
g43
sVIsOwner
p298
I0
sVSex
p299
I0
sVStarFriend
p300
I0
sVHideInputBarFlag
p301
I0
sVChatRoomId
p302
I0
sVEncryChatRoomId
p303
g43
sVAttrStatus
p304
I0
sVStatues
p305
I0
stp306
Rp307
I1
batp308
Rp309
I1
bssS'loginInfo'
p310
(dp311
S'SyncKey'
p312
(dp313
VCount
p314
I4
sVList
p315
(lp316
(dp317
VVal
p318
I673812448
sVKey
p319
I1
sa(dp320
VVal
p321
I673812575
sVKey
p322
I2
sa(dp323
VVal
p324
I673810679
sVKey
p325
I3
sa(dp326
VVal
p327
I1539903604
sVKey
p328
I1000
sassS'syncUrl'
p329
S'https://webpush.wx2.qq.com/cgi-bin/mmwebwx-bin'
p330
sS'skey'
p331
V@crypt_7ea77ac1_98bcb84c503ce7119c40f653bb5ba7ff
p332
sS'wxuin'
p333
V2774260834
p334
sS'synckey'
p335
S'1_673812448|2_673812575|3_673810679|1000_1539903604'
p336
sS'url'
p337
Vhttps://wx2.qq.com/cgi-bin/mmwebwx-bin
p338
sS'pass_ticket'
p339
VKE7ORDAwzMo8caG7s2Wf3ZR47HZIfFUYMQMIEkKC8QKPI87JOtsG3mR6V9XpSiZ%2B
p340
sS'wxsid'
p341
V3scqbBNZi7OqaTkv
p342
sS'InviteStartCount'
p343
I40
sS'deviceid'
p344
S'e488945381812644'
p345
sS'fileUrl'
p346
S'https://file.wx2.qq.com/cgi-bin/mmwebwx-bin'
p347
sS'BaseRequest'
p348
(dp349
g45
g334
sS'Skey'
p350
g332
sS'DeviceID'
p351
g340
sS'Sid'
p352
g342
ssS'User'
p353
g25
(g29
g30
(dp354
g32
g22
sg33
g34
sg35
g34
sg36
I0
sg38
g41
sg42
g43
sg44
g43
sg69
I2
sg46
I0
sg47
I0
sg48
g34
sg49
g34
sg50
g43
sg51
g43
sg52
I0
sg53
I0
sg54
I1
sg55
g34
sg56
I0
sg59
I0
sg57
I0
sg58
I0
sg37
I0
sg60
g34
sg61
g62
sg63
I0
sg64
g65
sg66
g43
sg67
g68
sg45
I2774260834
sg70
I0
sg71
I0
stp355
Rp356
I1
bss.