(dp0
S'cookies'
p1
(dp2
S'webwx_data_ticket'
p3
S'gSeAx/KpPYRdkf1SlwSlBmBl'
p4
sS'wxuin'
p5
S'2774260834'
p6
sS'webwxuvid'
p7
S'a59d4ef0a0c9f96e22dedc56f39ce8a12a6ef6e5aef8cb0602562bd9ec3a1d75eb7ad82e9b25fcd8b4e7adaaed236eb0'
p8
sS'webwx_auth_ticket'
p9
S'CIsBEPuzkJoCGoABAnL9yRNPvT/nvnTCUIFikaSUsXwSbWyDFBbu81PUKfalIyeYCwaw4tg2Qe4lDeD8NZZ1ZxRD9olcMmYHpfiJ3EMakLSJFlsKH0ODI3FkZrbwvSxbACQGhy7mQZmc6RQP51m+ywCXltYrN5G/ibLt860umnmu0KtN19bqFHW3ITI='
p10
sS'wxloadtime'
p11
S'1540192689'
p12
sS'wxsid'
p13
S'/PnsoVMSYFOtIyda'
p14
sS'mm_lang'
p15
S'zh_CN'
p16
ssS'version'
p17
S'1.3.10'
p18
sS'storage'
p19
(dp20
S'userName'
p21
V@73f028b2328d68d894662b61e264546010459ad9a17c616d4df9ef6793a1de8c
p22
sS'lastInputUserName'
p23
NsS'memberList'
p24
ccopy_reg
_reconstructor
p25
(citchat.storage.templates
ContactList
p26
c__builtin__
list
p27
(lp28
g25
(citchat.storage.templates
User
p29
c__builtin__
dict
p30
(dp31
S'UserName'
p32
g22
sS'City'
p33
S''
p34
sS'DisplayName'
p35
g34
sS'UniFriend'
p36
I0
sS'OwnerUin'
p37
I0
sS'MemberList'
p38
g25
(g26
g27
(lp39
tp40
Rp41
I1
bsS'PYQuanPin'
p42
V
p43
sS'RemarkPYInitial'
p44
g43
sS'Uin'
p45
I2774260834
sS'AppAccountFlag'
p46
I0
sS'VerifyFlag'
p47
I0
sS'Province'
p48
g34
sS'KeyWord'
p49
g34
sS'RemarkName'
p50
g43
sS'PYInitial'
p51
g43
sS'ChatRoomId'
p52
I0
sS'HideInputBarFlag'
p53
I0
sVHeadImgFlag
p54
I1
sS'EncryChatRoomId'
p55
g34
sS'AttrStatus'
p56
I0
sS'SnsFlag'
p57
I0
sS'MemberCount'
p58
I0
sVWebWxPluginSwitch
p59
I0
sS'Alias'
p60
g34
sS'Signature'
p61
V\u627e\u4e2a\u65f6\u95f4\u53bb\u65c5\u884c
p62
sS'ContactFlag'
p63
I0
sS'NickName'
p64
V\u4e13\u603c2\u72d7\u54c8\u58eb\u5947\u7684\u673a\u5668\u732b\uff01
p65
sS'RemarkPYQuanPin'
p66
g43
sS'HeadImgUrl'
p67
V/cgi-bin/mmwebwx-bin/webwxgeticon?seq=1002201554&username=@73f028b2328d68d894662b61e264546010459ad9a17c616d4df9ef6793a1de8c&skey=@crypt_7ea77ac1_7760d52a99472271c5e15006ca174242
p68
sS'Sex'
p69
I1
sS'StarFriend'
p70
I0
sS'Statues'
p71
I0
stp72
Rp73
I1
bag25
(g29
g30
(dp74
VUserName
p75
V@97a131705e2c159e188212b4e13442698f8460586fa6ff5313e24b2f65a0b90c
p76
sVCity
p77
V\u5b81\u6ce2
p78
sVSnsFlag
p79
I49
sVDisplayName
p80
g43
sVUniFriend
p81
I0
sVMemberCount
p82
I0
sVOwnerUin
p83
I0
sVMemberList
p84
g41
sVAlias
p85
g43
sVPYQuanPin
p86
V?
p87
sVSignature
p88
g43
sVRemarkPYInitial
p89
g43
sVContactFlag
p90
I3
sVUin
p91
I0
sVNickName
p92
V\uabed
p93
sVAppAccountFlag
p94
I0
sVVerifyFlag
p95
I0
sVRemarkPYQuanPin
p96
g43
sVHeadImgUrl
p97
V/cgi-bin/mmwebwx-bin/webwxgeticon?seq=673810124&username=@97a131705e2c159e188212b4e13442698f8460586fa6ff5313e24b2f65a0b90c&skey=@crypt_7ea77ac1_7760d52a99472271c5e15006ca174242
p98
sVKeyWord
p99
g43
sVProvince
p100
V\u6d59\u6c5f
p101
sVPYInitial
p102
g87
sVRemarkName
p103
g43
sVIsOwner
p104
I0
sVSex
p105
I1
sVStarFriend
p106
I0
sVHideInputBarFlag
p107
I0
sVChatRoomId
p108
I0
sVEncryChatRoomId
p109
g43
sVAttrStatus
p110
I229413
sVStatues
p111
I0
stp112
Rp113
I1
batp114
Rp115
I1
bsS'chatroomList'
p116
g25
(g26
g27
(lp117
g25
(citchat.storage.templates
Chatroom
p118
g30
(dp119
VUserName
p120
V@@1debad4d29faa176c7cb75164b3fbf80f4e1647fc6c63358ad9b90eea0affc9a
p121
sVCity
p122
g43
sVDisplayName
p123
g43
sVUniFriend
p124
I0
sS'Self'
p125
g25
(g29
g30
(dp126
g32
g22
sg33
g34
sg35
g34
sg36
I0
sg37
I0
sg38
g25
(g26
g27
(lp127
tp128
Rp129
I1
bsg42
g43
sg44
g43
sg45
I2774260834
sg46
I0
sg47
I0
sg48
g34
sg49
g34
sg50
g43
sg51
g43
sg52
I0
sg53
I0
sg54
I1
sg55
g34
sg56
I0
sg57
I0
sg58
I0
sg59
I0
sg60
g34
sg61
g62
sg63
I0
sg64
g65
sg66
g43
sg67
g68
sg69
I1
sg70
I0
sg71
I0
stp130
Rp131
I1
bsVMemberList
p132
g25
(g26
g27
(lp133
tp134
Rp135
I1
bsVPYQuanPin
p136
g43
sVRemarkPYInitial
p137
g43
sVSex
p138
I0
sVAppAccountFlag
p139
I0
sVVerifyFlag
p140
I0
sVProvince
p141
g43
sVKeyWord
p142
g43
sVRemarkName
p143
g43
sVPYInitial
p144
g43
sVIsOwner
p145
I0
sVChatRoomId
p146
I0
sVHideInputBarFlag
p147
I0
sVEncryChatRoomId
p148
g43
sVAttrStatus
p149
I0
sVSnsFlag
p150
I0
sVMemberCount
p151
I3
sVOwnerUin
p152
I0
sVAlias
p153
g43
sS'IsAdmin'
p154
NsVSignature
p155
g43
sVContactFlag
p156
I0
sVNickName
p157
V\u6d4b\u8bd5\u673a\u5668\u4eba
p158
sVRemarkPYQuanPin
p159
g43
sVHeadImgUrl
p160
V/cgi-bin/mmwebwx-bin/webwxgetheadimg?seq=0&username=@@1debad4d29faa176c7cb75164b3fbf80f4e1647fc6c63358ad9b90eea0affc9a&skey=@crypt_7ea77ac1_7760d52a99472271c5e15006ca174242
p161
sVUin
p162
I0
sVStarFriend
p163
I0
sVStatues
p164
I1
stp165
Rp166
I1
bag25
(g118
g30
(dp167
VUserName
p168
V@@be1b05605e47632448aaff4246e7e20d024d05ace22f38b478a91f4b403448fa
p169
sVCity
p170
g43
sVDisplayName
p171
g43
sVUniFriend
p172
I0
sg125
g25
(g29
g30
(dp173
g32
g22
sg33
g34
sg35
g34
sg36
I0
sg37
I0
sg38
g25
(g26
g27
(lp174
tp175
Rp176
I1
bsg42
g43
sg44
g43
sg45
I2774260834
sg46
I0
sg47
I0
sg48
g34
sg49
g34
sg50
g43
sg51
g43
sg52
I0
sg53
I0
sg54
I1
sg55
g34
sg56
I0
sg57
I0
sg58
I0
sg59
I0
sg60
g34
sg61
g62
sg63
I0
sg64
g65
sg66
g43
sg67
g68
sg69
I1
sg70
I0
sg71
I0
stp177
Rp178
I1
bsVMemberList
p179
g25
(g26
g27
(lp180
tp181
Rp182
I1
bsVPYQuanPin
p183
g43
sVRemarkPYInitial
p184
g43
sVSex
p185
I0
sVAppAccountFlag
p186
I0
sVVerifyFlag
p187
I0
sVProvince
p188
g43
sVKeyWord
p189
g43
sVRemarkName
p190
g43
sVPYInitial
p191
g43
sVIsOwner
p192
I0
sVChatRoomId
p193
I0
sVHideInputBarFlag
p194
I0
sVEncryChatRoomId
p195
g43
sVAttrStatus
p196
I0
sVSnsFlag
p197
I0
sVMemberCount
p198
I83
sVOwnerUin
p199
I0
sVAlias
p200
g43
sg154
NsVSignature
p201
g43
sVContactFlag
p202
I0
sVNickName
p203
V\U0001f697\u8c1c\u4e4b\u6155\u9a6c\u10e6\u98de\u8f66\u4ea4\u6d41
p204
sVRemarkPYQuanPin
p205
g43
sVHeadImgUrl
p206
V/cgi-bin/mmwebwx-bin/webwxgetheadimg?seq=0&username=@@be1b05605e47632448aaff4246e7e20d024d05ace22f38b478a91f4b403448fa&skey=@crypt_7ea77ac1_7760d52a99472271c5e15006ca174242
p207
sVUin
p208
I0
sVStarFriend
p209
I0
sVStatues
p210
I0
stp211
Rp212
I1
bag25
(g118
g30
(dp213
VUserName
p214
V@@e409bc48fad8b7a2182468c23cb457e10f3db6fa96790758bb77fd10ab7daab1
p215
sVCity
p216
g43
sVDisplayName
p217
g43
sVUniFriend
p218
I0
sg125
g25
(g29
g30
(dp219
g32
g22
sg33
g34
sg35
g34
sg36
I0
sg37
I0
sg38
g25
(g26
g27
(lp220
tp221
Rp222
I1
bsg42
g43
sg44
g43
sg45
I2774260834
sg46
I0
sg47
I0
sg48
g34
sg49
g34
sg50
g43
sg51
g43
sg52
I0
sg53
I0
sg54
I1
sg55
g34
sg56
I0
sg57
I0
sg58
I0
sg59
I0
sg60
g34
sg61
g62
sg63
I0
sg64
g65
sg66
g43
sg67
g68
sg69
I1
sg70
I0
sg71
I0
stp223
Rp224
I1
bsVMemberList
p225
g25
(g26
g27
(lp226
tp227
Rp228
I1
bsVPYQuanPin
p229
g43
sVRemarkPYInitial
p230
g43
sVSex
p231
I0
sVAppAccountFlag
p232
I0
sVVerifyFlag
p233
I0
sVProvince
p234
g43
sVKeyWord
p235
g43
sVRemarkName
p236
g43
sVPYInitial
p237
g43
sVIsOwner
p238
I0
sVChatRoomId
p239
I0
sVHideInputBarFlag
p240
I0
sVEncryChatRoomId
p241
g43
sVAttrStatus
p242
I0
sVSnsFlag
p243
I0
sVMemberCount
p244
I44
sVOwnerUin
p245
I0
sVAlias
p246
g43
sg154
NsVSignature
p247
g43
sVContactFlag
p248
I0
sVNickName
p249
V\U0001f699 \u8c1c\u4e4b\u81ea\u4fe1\u2461
p250
sVRemarkPYQuanPin
p251
g43
sVHeadImgUrl
p252
V/cgi-bin/mmwebwx-bin/webwxgetheadimg?seq=0&username=@@e409bc48fad8b7a2182468c23cb457e10f3db6fa96790758bb77fd10ab7daab1&skey=@crypt_7ea77ac1_7760d52a99472271c5e15006ca174242
p253
sVUin
p254
I0
sVStarFriend
p255
I0
sVStatues
p256
I0
stp257
Rp258
I1
bag25
(g118
g30
(dp259
VUserName
p260
V@@c8586048478e54d4be08c7dc988c1aba9fe69b9669fd85aaba91b70fffb06c34
p261
sVCity
p262
g43
sVDisplayName
p263
g43
sVUniFriend
p264
I0
sg125
g25
(g29
g30
(dp265
g32
g22
sg33
g34
sg35
g34
sg36
I0
sg37
I0
sg38
g25
(g26
g27
(lp266
tp267
Rp268
I1
bsg42
g43
sg44
g43
sg45
I2774260834
sg46
I0
sg47
I0
sg48
g34
sg49
g34
sg50
g43
sg51
g43
sg52
I0
sg53
I0
sg54
I1
sg55
g34
sg56
I0
sg57
I0
sg58
I0
sg59
I0
sg60
g34
sg61
g62
sg63
I0
sg64
g65
sg66
g43
sg67
g68
sg69
I1
sg70
I0
sg71
I0
stp269
Rp270
I1
bsVMemberList
p271
g25
(g26
g27
(lp272
tp273
Rp274
I1
bsVPYQuanPin
p275
g43
sVRemarkPYInitial
p276
g43
sVSex
p277
I0
sVAppAccountFlag
p278
I0
sVVerifyFlag
p279
I0
sVProvince
p280
g43
sVKeyWord
p281
g43
sVRemarkName
p282
g43
sVPYInitial
p283
g43
sVIsOwner
p284
I0
sVChatRoomId
p285
I0
sVHideInputBarFlag
p286
I0
sVEncryChatRoomId
p287
g43
sVAttrStatus
p288
I0
sVSnsFlag
p289
I0
sVMemberCount
p290
I8
sVOwnerUin
p291
I0
sVAlias
p292
g43
sg154
NsVSignature
p293
g43
sVContactFlag
p294
I0
sVNickName
p295
Vphp\u662f\u4e16\u754c\u4e0a\u6700\u597d\u7684\u8bed\u8a00\uff0cVUE\u662f\u6700\u597d\u7684
p296
sVRemarkPYQuanPin
p297
g43
sVHeadImgUrl
p298
V/cgi-bin/mmwebwx-bin/webwxgetheadimg?seq=0&username=@@c8586048478e54d4be08c7dc988c1aba9fe69b9669fd85aaba91b70fffb06c34&skey=@crypt_7ea77ac1_7760d52a99472271c5e15006ca174242
p299
sVUin
p300
I0
sVStarFriend
p301
I0
sVStatues
p302
I0
stp303
Rp304
I1
batp305
Rp306
I1
bsS'nickName'
p307
g65
sS'mpList'
p308
g25
(g26
g27
(lp309
g25
(citchat.storage.templates
MassivePlatform
p310
g30
(dp311
VUserName
p312
V@bce8f4da5b41810bffe93a6559efd140
p313
sVCity
p314
V\u5e7f\u5dde
p315
sVSnsFlag
p316
I0
sVDisplayName
p317
g43
sVUniFriend
p318
I0
sVMemberCount
p319
I0
sVOwnerUin
p320
I0
sVMemberList
p321
g41
sVAlias
p322
g43
sVPYQuanPin
p323
Vweixinyouhu
p324
sVSignature
p325
V\u5173\u6ce8\u5fae\u4fe1\u6e38\u620f\u5b98\u65b9\u516c\u4f17\u5e10\u53f7\uff0c\u5373\u65f6\u6536\u53d6\u6e38\u620f\u8baf\u606f\uff0c\u8fd8\u80fd\u67e5\u770b\u5404\u6e38\u620f\u653b\u7565\uff0c\u62a2\u5148\u4f53\u9a8c\u6d3b\u52a8\uff01
p326
sVRemarkPYInitial
p327
g43
sVContactFlag
p328
I3
sVUin
p329
I0
sVNickName
p330
V\u5fae\u4fe1\u6e38\u620f
p331
sVAppAccountFlag
p332
I0
sVVerifyFlag
p333
I24
sVRemarkPYQuanPin
p334
g43
sVHeadImgUrl
p335
V/cgi-bin/mmwebwx-bin/webwxgeticon?seq=627210067&username=@bce8f4da5b41810bffe93a6559efd140&skey=@crypt_7ea77ac1_7760d52a99472271c5e15006ca174242
p336
sVKeyWord
p337
Vgh_
p338
sVProvince
p339
V\u5e7f\u4e1c
p340
sVPYInitial
p341
VWXYH
p342
sVRemarkName
p343
g43
sVIsOwner
p344
I0
sVSex
p345
I0
sVStarFriend
p346
I0
sVHideInputBarFlag
p347
I0
sVChatRoomId
p348
I0
sVEncryChatRoomId
p349
g43
sVAttrStatus
p350
I0
sVStatues
p351
I0
stp352
Rp353
I1
batp354
Rp355
I1
bssS'loginInfo'
p356
(dp357
S'SyncKey'
p358
(dp359
VCount
p360
I4
sVList
p361
(lp362
(dp363
VVal
p364
I673814197
sVKey
p365
I1
sa(dp366
VVal
p367
I673814716
sVKey
p368
I2
sa(dp369
VVal
p370
I673810679
sVKey
p371
I3
sa(dp372
VVal
p373
I1540184642
sVKey
p374
I1000
sassS'syncUrl'
p375
S'https://webpush.wx2.qq.com/cgi-bin/mmwebwx-bin'
p376
sS'skey'
p377
V@crypt_7ea77ac1_7760d52a99472271c5e15006ca174242
p378
sS'wxuin'
p379
V2774260834
p380
sS'synckey'
p381
S'1_673814197|2_673814716|3_673810679|1000_1540184642'
p382
sS'url'
p383
Vhttps://wx2.qq.com/cgi-bin/mmwebwx-bin
p384
sS'pass_ticket'
p385
Vt%2BNNPnZoPlcRxapTgp9KLbYCjtjU4nMxjCV1PtYU78%2FT4oNSN6Hy6%2FduksRc7lqL
p386
sS'wxsid'
p387
V/PnsoVMSYFOtIyda
p388
sS'InviteStartCount'
p389
I40
sS'deviceid'
p390
S'e017105693893029'
p391
sS'fileUrl'
p392
S'https://file.wx2.qq.com/cgi-bin/mmwebwx-bin'
p393
sS'BaseRequest'
p394
(dp395
g45
g380
sS'Skey'
p396
g378
sS'DeviceID'
p397
g386
sS'Sid'
p398
g388
ssS'User'
p399
g25
(g29
g30
(dp400
g32
g22
sg33
g34
sg35
g34
sg36
I0
sg38
g41
sg42
g43
sg44
g43
sg69
I1
sg46
I0
sg47
I0
sg48
g34
sg49
g34
sg50
g43
sg51
g43
sg52
I0
sg53
I0
sg54
I1
sg55
g34
sg56
I0
sg59
I0
sg57
I0
sg58
I0
sg37
I0
sg60
g34
sg61
g62
sg63
I0
sg64
g65
sg66
g43
sg67
g68
sg45
I2774260834
sg70
I0
sg71
I0
stp401
Rp402
I1
bss.