(dp0
S'cookies'
p1
(dp2
S'webwx_data_ticket'
p3
S'gSfsFHnXRZB5A5ki/cWRLIys'
p4
sS'wxuin'
p5
S'2774260834'
p6
sS'webwxuvid'
p7
S'a59d4ef0a0c9f96e22dedc56f39ce8a1ccfa8d81c719685a9a511f7ba08f09f9bcb5352331781408eafbc97132ed5eed'
p8
sS'webwx_auth_ticket'
p9
S'CIsBEO+ymNcLGoABOSC7fqf/kwrCuVN5AtpeBaSUsXwSbWyDFBbu81PUKfZ18kQiQsoDPP9Tjw2LRgH7TzJPAh4wh6yItD6/QS4druM8IZmUTRkai07nfzjeKcMcbdbd2GJinu71ctcemmexgWkxwwbqA75/3bl8QKM4fa0umnmu0KtN19bqFHW3ITI='
p10
sS'wxloadtime'
p11
S'1540448796'
p12
sS'wxsid'
p13
S'wOeJuO57+atc5xLD'
p14
sS'mm_lang'
p15
S'zh_CN'
p16
ssS'version'
p17
S'1.3.10'
p18
sS'storage'
p19
(dp20
S'userName'
p21
V@17d27147c3367b52679e3986e5d665280f33ad05b364133382be3425ff473bd6
p22
sS'lastInputUserName'
p23
NsS'memberList'
p24
ccopy_reg
_reconstructor
p25
(citchat.storage.templates
ContactList
p26
c__builtin__
list
p27
(lp28
g25
(citchat.storage.templates
User
p29
c__builtin__
dict
p30
(dp31
S'UserName'
p32
g22
sS'City'
p33
S''
p34
sS'DisplayName'
p35
g34
sS'UniFriend'
p36
I0
sS'OwnerUin'
p37
I0
sS'MemberList'
p38
g25
(g26
g27
(lp39
tp40
Rp41
I1
bsS'PYQuanPin'
p42
V
p43
sS'RemarkPYInitial'
p44
g43
sS'Uin'
p45
I2774260834
sS'AppAccountFlag'
p46
I0
sS'VerifyFlag'
p47
I0
sS'Province'
p48
g34
sS'KeyWord'
p49
g34
sS'RemarkName'
p50
g43
sS'PYInitial'
p51
g43
sS'ChatRoomId'
p52
I0
sS'HideInputBarFlag'
p53
I0
sVHeadImgFlag
p54
I1
sS'EncryChatRoomId'
p55
g34
sS'AttrStatus'
p56
I0
sS'SnsFlag'
p57
I0
sS'MemberCount'
p58
I0
sVWebWxPluginSwitch
p59
I0
sS'Alias'
p60
g34
sS'Signature'
p61
V\u627e\u4e2a\u65f6\u95f4\u53bb\u65c5\u884c
p62
sS'ContactFlag'
p63
I0
sS'NickName'
p64
V\u4e13\u603c2\u72d7\u54c8\u58eb\u5947\u7684\u673a\u5668\u732b\uff01
p65
sS'RemarkPYQuanPin'
p66
g43
sS'HeadImgUrl'
p67
V/cgi-bin/mmwebwx-bin/webwxgeticon?seq=1408038095&username=@17d27147c3367b52679e3986e5d665280f33ad05b364133382be3425ff473bd6&skey=@crypt_7ea77ac1_3d32fb7741f818aad0fd5547fb16be2d
p68
sS'Sex'
p69
I1
sS'StarFriend'
p70
I0
sS'Statues'
p71
I0
stp72
Rp73
I1
bag25
(g29
g30
(dp74
VUserName
p75
V@e57cb25ddbfd6a4d8e50a598ec82b140855d4d449e52e56df8f44481e15fbf2d
p76
sVCity
p77
V\u5b81\u6ce2
p78
sVSnsFlag
p79
I49
sVDisplayName
p80
g43
sVUniFriend
p81
I0
sVMemberCount
p82
I0
sVOwnerUin
p83
I0
sVMemberList
p84
g41
sVAlias
p85
g43
sVPYQuanPin
p86
V?
p87
sVSignature
p88
g43
sVRemarkPYInitial
p89
g43
sVContactFlag
p90
I3
sVUin
p91
I0
sVNickName
p92
V\uabed
p93
sVAppAccountFlag
p94
I0
sVVerifyFlag
p95
I0
sVRemarkPYQuanPin
p96
g43
sVHeadImgUrl
p97
V/cgi-bin/mmwebwx-bin/webwxgeticon?seq=673810124&username=@e57cb25ddbfd6a4d8e50a598ec82b140855d4d449e52e56df8f44481e15fbf2d&skey=@crypt_7ea77ac1_3d32fb7741f818aad0fd5547fb16be2d
p98
sVKeyWord
p99
g43
sVProvince
p100
V\u6d59\u6c5f
p101
sVPYInitial
p102
g87
sVRemarkName
p103
g43
sVIsOwner
p104
I0
sVSex
p105
I1
sVStarFriend
p106
I0
sVHideInputBarFlag
p107
I0
sVChatRoomId
p108
I0
sVEncryChatRoomId
p109
g43
sVAttrStatus
p110
I229413
sVStatues
p111
I0
stp112
Rp113
I1
batp114
Rp115
I1
bsS'chatroomList'
p116
g25
(g26
g27
(lp117
g25
(citchat.storage.templates
Chatroom
p118
g30
(dp119
VUserName
p120
V@@49731392a75d32fd37b21875906abe3467326b9e1edf431a5207e005f09227a4
p121
sVCity
p122
g43
sVDisplayName
p123
g43
sVUniFriend
p124
I0
sS'Self'
p125
g25
(g29
g30
(dp126
g32
g22
sg33
g34
sg35
g34
sg36
I0
sg37
I0
sg38
g25
(g26
g27
(lp127
tp128
Rp129
I1
bsg42
g43
sg44
g43
sg45
I2774260834
sg46
I0
sg47
I0
sg48
g34
sg49
g34
sg50
g43
sg51
g43
sg52
I0
sg53
I0
sg54
I1
sg55
g34
sg56
I0
sg57
I0
sg58
I0
sg59
I0
sg60
g34
sg61
g62
sg63
I0
sg64
g65
sg66
g43
sg67
g68
sg69
I1
sg70
I0
sg71
I0
stp130
Rp131
I1
bsVMemberList
p132
g25
(g26
g27
(lp133
tp134
Rp135
I1
bsVPYQuanPin
p136
g43
sVRemarkPYInitial
p137
g43
sVSex
p138
I0
sVAppAccountFlag
p139
I0
sVVerifyFlag
p140
I0
sVProvince
p141
g43
sVKeyWord
p142
g43
sVRemarkName
p143
g43
sVPYInitial
p144
g43
sVIsOwner
p145
I0
sVChatRoomId
p146
I0
sVHideInputBarFlag
p147
I0
sVEncryChatRoomId
p148
g43
sVAttrStatus
p149
I0
sVSnsFlag
p150
I0
sVMemberCount
p151
I41
sVOwnerUin
p152
I0
sVAlias
p153
g43
sS'IsAdmin'
p154
NsVSignature
p155
g43
sVContactFlag
p156
I0
sVNickName
p157
V\U0001f699 \u8c1c\u4e4b\u65f6\u5c1a\u2463
p158
sVRemarkPYQuanPin
p159
g43
sVHeadImgUrl
p160
V/cgi-bin/mmwebwx-bin/webwxgetheadimg?seq=0&username=@@49731392a75d32fd37b21875906abe3467326b9e1edf431a5207e005f09227a4&skey=@crypt_7ea77ac1_3d32fb7741f818aad0fd5547fb16be2d
p161
sVUin
p162
I0
sVStarFriend
p163
I0
sVStatues
p164
I0
stp165
Rp166
I1
bag25
(g118
g30
(dp167
VUserName
p168
V@@66e6f206d5142853ef1414c034ae7e82a2426c4534b9c02dc8373ba40578f963
p169
sVCity
p170
g43
sVDisplayName
p171
g43
sVUniFriend
p172
I0
sg125
g25
(g29
g30
(dp173
g32
g22
sg33
g34
sg35
g34
sg36
I0
sg37
I0
sg38
g25
(g26
g27
(lp174
tp175
Rp176
I1
bsg42
g43
sg44
g43
sg45
I2774260834
sg46
I0
sg47
I0
sg48
g34
sg49
g34
sg50
g43
sg51
g43
sg52
I0
sg53
I0
sg54
I1
sg55
g34
sg56
I0
sg57
I0
sg58
I0
sg59
I0
sg60
g34
sg61
g62
sg63
I0
sg64
g65
sg66
g43
sg67
g68
sg69
I1
sg70
I0
sg71
I0
stp177
Rp178
I1
bsVMemberList
p179
g25
(g26
g27
(lp180
tp181
Rp182
I1
bsVPYQuanPin
p183
g43
sVRemarkPYInitial
p184
g43
sVSex
p185
I0
sVAppAccountFlag
p186
I0
sVVerifyFlag
p187
I0
sVProvince
p188
g43
sVKeyWord
p189
g43
sVRemarkName
p190
g43
sVPYInitial
p191
g43
sVIsOwner
p192
I0
sVChatRoomId
p193
I0
sVHideInputBarFlag
p194
I0
sVEncryChatRoomId
p195
g43
sVAttrStatus
p196
I0
sVSnsFlag
p197
I0
sVMemberCount
p198
I8
sVOwnerUin
p199
I0
sVAlias
p200
g43
sg154
NsVSignature
p201
g43
sVContactFlag
p202
I0
sVNickName
p203
Vphp\u662f\u4e16\u754c\u4e0a\u6700\u597d\u7684\u8bed\u8a00\uff0cVUE\u662f\u6700\u597d\u7684
p204
sVRemarkPYQuanPin
p205
g43
sVHeadImgUrl
p206
V/cgi-bin/mmwebwx-bin/webwxgetheadimg?seq=0&username=@@66e6f206d5142853ef1414c034ae7e82a2426c4534b9c02dc8373ba40578f963&skey=@crypt_7ea77ac1_3d32fb7741f818aad0fd5547fb16be2d
p207
sVUin
p208
I0
sVStarFriend
p209
I0
sVStatues
p210
I0
stp211
Rp212
I1
bag25
(g118
g30
(dp213
VUserName
p214
V@@e61a507fe101b9c812d9b7f2a2cbe14cf3bc755553ea0f8a9cc4230c7e51f414
p215
sVCity
p216
g43
sVDisplayName
p217
g43
sVUniFriend
p218
I0
sg125
g25
(g29
g30
(dp219
g32
g22
sg33
g34
sg35
g34
sg36
I0
sg37
I0
sg38
g25
(g26
g27
(lp220
tp221
Rp222
I1
bsg42
g43
sg44
g43
sg45
I2774260834
sg46
I0
sg47
I0
sg48
g34
sg49
g34
sg50
g43
sg51
g43
sg52
I0
sg53
I0
sg54
I1
sg55
g34
sg56
I0
sg57
I0
sg58
I0
sg59
I0
sg60
g34
sg61
g62
sg63
I0
sg64
g65
sg66
g43
sg67
g68
sg69
I1
sg70
I0
sg71
I0
stp223
Rp224
I1
bsVMemberList
p225
g25
(g26
g27
(lp226
tp227
Rp228
I1
bsVPYQuanPin
p229
g43
sVRemarkPYInitial
p230
g43
sVSex
p231
I0
sVAppAccountFlag
p232
I0
sVVerifyFlag
p233
I0
sVProvince
p234
g43
sVKeyWord
p235
g43
sVRemarkName
p236
g43
sVPYInitial
p237
g43
sVIsOwner
p238
I0
sVChatRoomId
p239
I0
sVHideInputBarFlag
p240
I0
sVEncryChatRoomId
p241
g43
sVAttrStatus
p242
I0
sVSnsFlag
p243
I0
sVMemberCount
p244
I81
sVOwnerUin
p245
I0
sVAlias
p246
g43
sg154
NsVSignature
p247
g43
sVContactFlag
p248
I0
sVNickName
p249
V\U0001f697\u8c1c\u4e4b\u6155\u9a6c\u10e6\u98de\u8f66\u4ea4\u6d41
p250
sVRemarkPYQuanPin
p251
g43
sVHeadImgUrl
p252
V/cgi-bin/mmwebwx-bin/webwxgetheadimg?seq=0&username=@@e61a507fe101b9c812d9b7f2a2cbe14cf3bc755553ea0f8a9cc4230c7e51f414&skey=@crypt_7ea77ac1_3d32fb7741f818aad0fd5547fb16be2d
p253
sVUin
p254
I0
sVStarFriend
p255
I0
sVStatues
p256
I0
stp257
Rp258
I1
bag25
(g118
g30
(dp259
VUserName
p260
V@@52a72b6c3224cbb66294ae58af30a28aaff11557291209ae80e64e25cc6e4498
p261
sVCity
p262
g43
sVDisplayName
p263
g43
sVUniFriend
p264
I0
sg125
g25
(g29
g30
(dp265
g32
g22
sg33
g34
sg35
g34
sg36
I0
sg37
I0
sg38
g25
(g26
g27
(lp266
tp267
Rp268
I1
bsg42
g43
sg44
g43
sg45
I2774260834
sg46
I0
sg47
I0
sg48
g34
sg49
g34
sg50
g43
sg51
g43
sg52
I0
sg53
I0
sg54
I1
sg55
g34
sg56
I0
sg57
I0
sg58
I0
sg59
I0
sg60
g34
sg61
g62
sg63
I0
sg64
g65
sg66
g43
sg67
g68
sg69
I1
sg70
I0
sg71
I0
stp269
Rp270
I1
bsVMemberList
p271
g25
(g26
g27
(lp272
tp273
Rp274
I1
bsVPYQuanPin
p275
g43
sVRemarkPYInitial
p276
g43
sVSex
p277
I0
sVAppAccountFlag
p278
I0
sVVerifyFlag
p279
I0
sVProvince
p280
g43
sVKeyWord
p281
g43
sVRemarkName
p282
g43
sVPYInitial
p283
g43
sVIsOwner
p284
I0
sVChatRoomId
p285
I0
sVHideInputBarFlag
p286
I0
sVEncryChatRoomId
p287
g43
sVAttrStatus
p288
I0
sVSnsFlag
p289
I0
sVMemberCount
p290
I27
sVOwnerUin
p291
I0
sVAlias
p292
g43
sg154
NsVSignature
p293
g43
sVContactFlag
p294
I0
sVNickName
p295
V\u10e6Lucky\u0336
p296
sVRemarkPYQuanPin
p297
g43
sVHeadImgUrl
p298
V/cgi-bin/mmwebwx-bin/webwxgetheadimg?seq=0&username=@@52a72b6c3224cbb66294ae58af30a28aaff11557291209ae80e64e25cc6e4498&skey=@crypt_7ea77ac1_3d32fb7741f818aad0fd5547fb16be2d
p299
sVUin
p300
I0
sVStarFriend
p301
I0
sVStatues
p302
I1
stp303
Rp304
I1
bag25
(g118
g30
(dp305
VUserName
p306
V@@09411d54d65486148cac7b8fe03b4f564a28ece5614e05b1cbbcff161b5b458d
p307
sVCity
p308
g43
sVDisplayName
p309
g43
sVUniFriend
p310
I0
sg125
g25
(g29
g30
(dp311
g32
g22
sg33
g34
sg35
g34
sg36
I0
sg37
I0
sg38
g25
(g26
g27
(lp312
tp313
Rp314
I1
bsg42
g43
sg44
g43
sg45
I2774260834
sg46
I0
sg47
I0
sg48
g34
sg49
g34
sg50
g43
sg51
g43
sg52
I0
sg53
I0
sg54
I1
sg55
g34
sg56
I0
sg57
I0
sg58
I0
sg59
I0
sg60
g34
sg61
g62
sg63
I0
sg64
g65
sg66
g43
sg67
g68
sg69
I1
sg70
I0
sg71
I0
stp315
Rp316
I1
bsVMemberList
p317
g25
(g26
g27
(lp318
tp319
Rp320
I1
bsVPYQuanPin
p321
g43
sVRemarkPYInitial
p322
g43
sVSex
p323
I0
sVAppAccountFlag
p324
I0
sVVerifyFlag
p325
I0
sVProvince
p326
g43
sVKeyWord
p327
g43
sVRemarkName
p328
g43
sVPYInitial
p329
g43
sVIsOwner
p330
I0
sVChatRoomId
p331
I0
sVHideInputBarFlag
p332
I0
sVEncryChatRoomId
p333
g43
sVAttrStatus
p334
I0
sVSnsFlag
p335
I0
sVMemberCount
p336
I44
sVOwnerUin
p337
I0
sVAlias
p338
g43
sg154
NsVSignature
p339
g43
sVContactFlag
p340
I0
sVNickName
p341
V\U0001f699 \u8c1c\u4e4b\u81ea\u4fe1\u2461
p342
sVRemarkPYQuanPin
p343
g43
sVHeadImgUrl
p344
V/cgi-bin/mmwebwx-bin/webwxgetheadimg?seq=0&username=@@09411d54d65486148cac7b8fe03b4f564a28ece5614e05b1cbbcff161b5b458d&skey=@crypt_7ea77ac1_3d32fb7741f818aad0fd5547fb16be2d
p345
sVUin
p346
I0
sVStarFriend
p347
I0
sVStatues
p348
I0
stp349
Rp350
I1
bag25
(g118
g30
(dp351
VUserName
p352
V@@850883cee0dc8482661eebfc23cdd1307294d8aee689068f81c2925097a45f89
p353
sVCity
p354
g43
sVDisplayName
p355
g43
sVUniFriend
p356
I0
sg125
g25
(g29
g30
(dp357
g32
g22
sg33
g34
sg35
g34
sg36
I0
sg37
I0
sg38
g25
(g26
g27
(lp358
tp359
Rp360
I1
bsg42
g43
sg44
g43
sg45
I2774260834
sg46
I0
sg47
I0
sg48
g34
sg49
g34
sg50
g43
sg51
g43
sg52
I0
sg53
I0
sg54
I1
sg55
g34
sg56
I0
sg57
I0
sg58
I0
sg59
I0
sg60
g34
sg61
g62
sg63
I0
sg64
g65
sg66
g43
sg67
g68
sg69
I1
sg70
I0
sg71
I0
stp361
Rp362
I1
bsVMemberList
p363
g25
(g26
g27
(lp364
tp365
Rp366
I1
bsVPYQuanPin
p367
g43
sVRemarkPYInitial
p368
g43
sVSex
p369
I0
sVAppAccountFlag
p370
I0
sVVerifyFlag
p371
I0
sVProvince
p372
g43
sVKeyWord
p373
g43
sVRemarkName
p374
g43
sVPYInitial
p375
g43
sVIsOwner
p376
I0
sVChatRoomId
p377
I0
sVHideInputBarFlag
p378
I0
sVEncryChatRoomId
p379
g43
sVAttrStatus
p380
I0
sVSnsFlag
p381
I0
sVMemberCount
p382
I3
sVOwnerUin
p383
I0
sVAlias
p384
g43
sg154
NsVSignature
p385
g43
sVContactFlag
p386
I0
sVNickName
p387
V\u6d4b\u8bd5\u673a\u5668\u4eba
p388
sVRemarkPYQuanPin
p389
g43
sVHeadImgUrl
p390
V/cgi-bin/mmwebwx-bin/webwxgetheadimg?seq=0&username=@@850883cee0dc8482661eebfc23cdd1307294d8aee689068f81c2925097a45f89&skey=@crypt_7ea77ac1_3d32fb7741f818aad0fd5547fb16be2d
p391
sVUin
p392
I0
sVStarFriend
p393
I0
sVStatues
p394
I1
stp395
Rp396
I1
batp397
Rp398
I1
bsS'nickName'
p399
g65
sS'mpList'
p400
g25
(g26
g27
(lp401
g25
(citchat.storage.templates
MassivePlatform
p402
g30
(dp403
VUserName
p404
V@7ab05d499a0909da5556d2f78151fb6c
p405
sVCity
p406
V\u5e7f\u5dde
p407
sVSnsFlag
p408
I0
sVDisplayName
p409
g43
sVUniFriend
p410
I0
sVMemberCount
p411
I0
sVOwnerUin
p412
I0
sVMemberList
p413
g41
sVAlias
p414
g43
sVPYQuanPin
p415
Vweixinyouhu
p416
sVSignature
p417
V\u5173\u6ce8\u5fae\u4fe1\u6e38\u620f\u5b98\u65b9\u516c\u4f17\u5e10\u53f7\uff0c\u5373\u65f6\u6536\u53d6\u6e38\u620f\u8baf\u606f\uff0c\u8fd8\u80fd\u67e5\u770b\u5404\u6e38\u620f\u653b\u7565\uff0c\u62a2\u5148\u4f53\u9a8c\u6d3b\u52a8\uff01
p418
sVRemarkPYInitial
p419
g43
sVContactFlag
p420
I3
sVUin
p421
I0
sVNickName
p422
V\u5fae\u4fe1\u6e38\u620f
p423
sVAppAccountFlag
p424
I0
sVVerifyFlag
p425
I24
sVRemarkPYQuanPin
p426
g43
sVHeadImgUrl
p427
V/cgi-bin/mmwebwx-bin/webwxgeticon?seq=627210067&username=@7ab05d499a0909da5556d2f78151fb6c&skey=@crypt_7ea77ac1_3d32fb7741f818aad0fd5547fb16be2d
p428
sVKeyWord
p429
Vgh_
p430
sVProvince
p431
V\u5e7f\u4e1c
p432
sVPYInitial
p433
VWXYH
p434
sVRemarkName
p435
g43
sVIsOwner
p436
I0
sVSex
p437
I0
sVStarFriend
p438
I0
sVHideInputBarFlag
p439
I0
sVChatRoomId
p440
I0
sVEncryChatRoomId
p441
g43
sVAttrStatus
p442
I0
sVStatues
p443
I0
stp444
Rp445
I1
batp446
Rp447
I1
bssS'loginInfo'
p448
(dp449
S'SyncKey'
p450
(dp451
VCount
p452
I4
sVList
p453
(lp454
(dp455
VVal
p456
I673820993
sVKey
p457
I1
sa(dp458
VVal
p459
I673822491
sVKey
p460
I2
sa(dp461
VVal
p462
I673816049
sVKey
p463
I3
sa(dp464
VVal
p465
I1540444322
sVKey
p466
I1000
sassS'syncUrl'
p467
S'https://webpush.wx2.qq.com/cgi-bin/mmwebwx-bin'
p468
sS'skey'
p469
V@crypt_7ea77ac1_3d32fb7741f818aad0fd5547fb16be2d
p470
sS'wxuin'
p471
V2774260834
p472
sS'synckey'
p473
S'1_673820993|2_673822491|3_673816049|1000_1540444322'
p474
sS'url'
p475
Vhttps://wx2.qq.com/cgi-bin/mmwebwx-bin
p476
sS'pass_ticket'
p477
VeQ3u%2FYep6tzGvxykdqS0%2BNf88L0rRHGLc3aUakZeH27EPHQrZZOWc21r6f61G3Ud
p478
sS'wxsid'
p479
VwOeJuO57+atc5xLD
p480
sS'InviteStartCount'
p481
I40
sS'deviceid'
p482
S'e963227687307032'
p483
sS'fileUrl'
p484
S'https://file.wx2.qq.com/cgi-bin/mmwebwx-bin'
p485
sS'BaseRequest'
p486
(dp487
g45
g472
sS'Skey'
p488
g470
sS'DeviceID'
p489
g478
sS'Sid'
p490
g480
ssS'User'
p491
g25
(g29
g30
(dp492
g32
g22
sg33
g34
sg35
g34
sg36
I0
sg38
g41
sg42
g43
sg44
g43
sg69
I1
sg46
I0
sg47
I0
sg48
g34
sg49
g34
sg50
g43
sg51
g43
sg52
I0
sg53
I0
sg54
I1
sg55
g34
sg56
I0
sg59
I0
sg57
I0
sg58
I0
sg37
I0
sg60
g34
sg61
g62
sg63
I0
sg64
g65
sg66
g43
sg67
g68
sg45
I2774260834
sg70
I0
sg71
I0
stp493
Rp494
I1
bss.