(dp0
S'cookies'
p1
(dp2
S'wxloadtime'
p3
S'1539756781'
p4
sS'webwx_data_ticket'
p5
S'gSdfEbYAh7VwpO3faHRKS3M2'
p6
sS'wxuin'
p7
S'2774260834'
p8
sS'login_frequency'
p9
S'2'
p10
sS'MM_WX_NOTIFY_STATE'
p11
S'1'
p12
sS'MM_WX_SOUND_STATE'
p13
g12
sS'webwx_auth_ticket'
p14
S'CIsBENGylOwPGoABmA/SCZVs9WsLhf5FgKS0V6SUsXwSbWyDFBbu81PUKfY9gVqOz01cY/QGEgBsAGI7C8L+aoySOH6TMjUUMI//Cb6qBpytd9owBkHw0aEakuhp2jagaI3CdM97c2mxSPyjH50CI/SzpkvFDjuwMxCIXK0umnmu0KtN19bqFHW3ITI='
p15
sS'last_wxuin'
p16
S'2774260834'
p17
sS'webwxuvid'
p18
S'a59d4ef0a0c9f96e22dedc56f39ce8a19f4e417df22233fb6605fe5a34b0a400b23c03f88d4d7dd04a4299d277a5516b'
p19
sS'wxpluginkey'
p20
S'1539751100'
p21
sS'wxsid'
p22
S'VuuZNQVTahvslodo'
p23
sS'mm_lang'
p24
S'zh_CN'
p25
ssS'version'
p26
S'1.3.10'
p27
sS'storage'
p28
(dp29
S'userName'
p30
V@34bc27c676c3595a17e870b0c5fc3c8cf44bebd168a631f92e9ab1217a13efad
p31
sS'lastInputUserName'
p32
NsS'memberList'
p33
ccopy_reg
_reconstructor
p34
(citchat.storage.templates
ContactList
p35
c__builtin__
list
p36
(lp37
g34
(citchat.storage.templates
User
p38
c__builtin__
dict
p39
(dp40
S'UserName'
p41
g31
sS'City'
p42
S''
p43
sS'DisplayName'
p44
g43
sS'UniFriend'
p45
I0
sS'OwnerUin'
p46
I0
sS'MemberList'
p47
g34
(g35
g36
(lp48
tp49
Rp50
I1
bsS'PYQuanPin'
p51
V
p52
sS'RemarkPYInitial'
p53
g52
sS'Uin'
p54
I2774260834
sS'AppAccountFlag'
p55
I0
sS'VerifyFlag'
p56
I0
sS'Province'
p57
g43
sS'KeyWord'
p58
g43
sS'RemarkName'
p59
g52
sS'PYInitial'
p60
g52
sS'ChatRoomId'
p61
I0
sS'HideInputBarFlag'
p62
I0
sVHeadImgFlag
p63
I1
sS'EncryChatRoomId'
p64
g43
sS'AttrStatus'
p65
I0
sS'SnsFlag'
p66
I0
sS'MemberCount'
p67
I0
sVWebWxPluginSwitch
p68
I0
sS'Alias'
p69
g43
sS'Signature'
p70
V\u627e\u4e2a\u65f6\u95f4\u53bb\u65c5\u884c
p71
sS'ContactFlag'
p72
I0
sS'NickName'
p73
V\u4e13\u603c\u4e8c\u72d7\u54c8\u58eb\u5947\u7684\u673a\u5668\u732b\uff01
p74
sS'RemarkPYQuanPin'
p75
g52
sS'HeadImgUrl'
p76
V/cgi-bin/mmwebwx-bin/webwxgeticon?seq=1297249243&username=@34bc27c676c3595a17e870b0c5fc3c8cf44bebd168a631f92e9ab1217a13efad&skey=@crypt_7ea77ac1_3570f7b3ee4d6e0847347e65cf08ed2c
p77
sS'Sex'
p78
I2
sS'StarFriend'
p79
I0
sS'Statues'
p80
I0
stp81
Rp82
I1
bag34
(g38
g39
(dp83
VUserName
p84
V@3227d66381fb04e0b9689225842cb53458ab9ab49747fc58b8b82892a658a3b7
p85
sVCity
p86
V\u5b81\u6ce2
p87
sVSnsFlag
p88
I49
sVDisplayName
p89
g52
sVUniFriend
p90
I0
sVMemberCount
p91
I0
sVOwnerUin
p92
I0
sVMemberList
p93
g50
sVAlias
p94
g52
sVPYQuanPin
p95
V?
p96
sVSignature
p97
g52
sVRemarkPYInitial
p98
g52
sVContactFlag
p99
I3
sVUin
p100
I0
sVNickName
p101
V\uabed
p102
sVAppAccountFlag
p103
I0
sVVerifyFlag
p104
I0
sVRemarkPYQuanPin
p105
g52
sVHeadImgUrl
p106
V/cgi-bin/mmwebwx-bin/webwxgeticon?seq=673810124&username=@3227d66381fb04e0b9689225842cb53458ab9ab49747fc58b8b82892a658a3b7&skey=@crypt_7ea77ac1_3570f7b3ee4d6e0847347e65cf08ed2c
p107
sVKeyWord
p108
g52
sVProvince
p109
V\u6d59\u6c5f
p110
sVPYInitial
p111
g96
sVRemarkName
p112
g52
sVIsOwner
p113
I0
sVSex
p114
I1
sVStarFriend
p115
I0
sVHideInputBarFlag
p116
I0
sVChatRoomId
p117
I0
sVEncryChatRoomId
p118
g52
sVAttrStatus
p119
I229413
sVStatues
p120
I0
stp121
Rp122
I1
batp123
Rp124
I1
bsS'chatroomList'
p125
g34
(g35
g36
(lp126
g34
(citchat.storage.templates
Chatroom
p127
g39
(dp128
VUserName
p129
V@@c31b8ec40f5f84f731a98d350327ce9268de68f023c428efb84770bb48a5de8d
p130
sVCity
p131
g52
sVDisplayName
p132
g52
sVUniFriend
p133
I0
sS'Self'
p134
g34
(g38
g39
(dp135
g41
g31
sg42
g43
sg44
g43
sg45
I0
sg46
I0
sg47
g34
(g35
g36
(lp136
tp137
Rp138
I1
bsg51
g52
sg53
g52
sg54
I2774260834
sg55
I0
sg56
I0
sg57
g43
sg58
g43
sg59
g52
sg60
g52
sg61
I0
sg62
I0
sg63
I1
sg64
g43
sg65
I0
sg66
I0
sg67
I0
sg68
I0
sg69
g43
sg70
g71
sg72
I0
sg73
g74
sg75
g52
sg76
g77
sg78
I2
sg79
I0
sg80
I0
stp139
Rp140
I1
bsVMemberList
p141
g34
(g35
g36
(lp142
tp143
Rp144
I1
bsVPYQuanPin
p145
g52
sVRemarkPYInitial
p146
g52
sVSex
p147
I0
sVAppAccountFlag
p148
I0
sVVerifyFlag
p149
I0
sVProvince
p150
g52
sVKeyWord
p151
g52
sVRemarkName
p152
g52
sVPYInitial
p153
g52
sVIsOwner
p154
I0
sVChatRoomId
p155
I0
sVHideInputBarFlag
p156
I0
sVEncryChatRoomId
p157
g52
sVAttrStatus
p158
I0
sVSnsFlag
p159
I0
sVMemberCount
p160
I8
sVOwnerUin
p161
I0
sVAlias
p162
g52
sS'IsAdmin'
p163
NsVSignature
p164
g52
sVContactFlag
p165
I0
sVNickName
p166
Vphp\u662f\u4e16\u754c\u4e0a\u6700\u597d\u7684\u8bed\u8a00\uff0cVUE\u662f\u6700\u597d\u7684
p167
sVRemarkPYQuanPin
p168
g52
sVHeadImgUrl
p169
V/cgi-bin/mmwebwx-bin/webwxgetheadimg?seq=0&username=@@c31b8ec40f5f84f731a98d350327ce9268de68f023c428efb84770bb48a5de8d&skey=@crypt_7ea77ac1_3570f7b3ee4d6e0847347e65cf08ed2c
p170
sVUin
p171
I0
sVStarFriend
p172
I0
sVStatues
p173
I1
stp174
Rp175
I1
bag34
(g127
g39
(dp176
VUserName
p177
V@@6f2cc630717d5e740d374ab520b96a0bc85a47cdf8dcf6ae985a5bfa37fcbfab
p178
sVCity
p179
g52
sVDisplayName
p180
g52
sVUniFriend
p181
I0
sg134
g34
(g38
g39
(dp182
g41
g31
sg42
g43
sg44
g43
sg45
I0
sg46
I0
sg47
g34
(g35
g36
(lp183
tp184
Rp185
I1
bsg51
g52
sg53
g52
sg54
I2774260834
sg55
I0
sg56
I0
sg57
g43
sg58
g43
sg59
g52
sg60
g52
sg61
I0
sg62
I0
sg63
I1
sg64
g43
sg65
I0
sg66
I0
sg67
I0
sg68
I0
sg69
g43
sg70
g71
sg72
I0
sg73
g74
sg75
g52
sg76
g77
sg78
I2
sg79
I0
sg80
I0
stp186
Rp187
I1
bsVMemberList
p188
g34
(g35
g36
(lp189
tp190
Rp191
I1
bsVPYQuanPin
p192
g52
sVRemarkPYInitial
p193
g52
sVSex
p194
I0
sVAppAccountFlag
p195
I0
sVVerifyFlag
p196
I0
sVProvince
p197
g52
sVKeyWord
p198
g52
sVRemarkName
p199
g52
sVPYInitial
p200
g52
sVIsOwner
p201
I0
sVChatRoomId
p202
I0
sVHideInputBarFlag
p203
I0
sVEncryChatRoomId
p204
g52
sVAttrStatus
p205
I0
sVSnsFlag
p206
I0
sVMemberCount
p207
I42
sVOwnerUin
p208
I0
sVAlias
p209
g52
sg163
NsVSignature
p210
g52
sVContactFlag
p211
I0
sVNickName
p212
V\U0001f699 \u8c1c\u4e4b\u81ea\u4fe1\u2461
p213
sVRemarkPYQuanPin
p214
g52
sVHeadImgUrl
p215
V/cgi-bin/mmwebwx-bin/webwxgetheadimg?seq=0&username=@@6f2cc630717d5e740d374ab520b96a0bc85a47cdf8dcf6ae985a5bfa37fcbfab&skey=@crypt_7ea77ac1_3570f7b3ee4d6e0847347e65cf08ed2c
p216
sVUin
p217
I0
sVStarFriend
p218
I0
sVStatues
p219
I0
stp220
Rp221
I1
bag34
(g127
g39
(dp222
VUserName
p223
V@@519cbf9236ce8a829f2ba09d7acfe8b6f36de33f1e2580d987d9ed1bc43ed707
p224
sVCity
p225
g52
sVDisplayName
p226
g52
sVUniFriend
p227
I0
sg134
g34
(g38
g39
(dp228
g41
g31
sg42
g43
sg44
g43
sg45
I0
sg46
I0
sg47
g34
(g35
g36
(lp229
tp230
Rp231
I1
bsg51
g52
sg53
g52
sg54
I2774260834
sg55
I0
sg56
I0
sg57
g43
sg58
g43
sg59
g52
sg60
g52
sg61
I0
sg62
I0
sg63
I1
sg64
g43
sg65
I0
sg66
I0
sg67
I0
sg68
I0
sg69
g43
sg70
g71
sg72
I0
sg73
g74
sg75
g52
sg76
g77
sg78
I2
sg79
I0
sg80
I0
stp232
Rp233
I1
bsVMemberList
p234
g34
(g35
g36
(lp235
tp236
Rp237
I1
bsVPYQuanPin
p238
g52
sVRemarkPYInitial
p239
g52
sVSex
p240
I0
sVAppAccountFlag
p241
I0
sVVerifyFlag
p242
I0
sVProvince
p243
g52
sVKeyWord
p244
g52
sVRemarkName
p245
g52
sVPYInitial
p246
g52
sVIsOwner
p247
I0
sVChatRoomId
p248
I0
sVHideInputBarFlag
p249
I0
sVEncryChatRoomId
p250
g52
sVAttrStatus
p251
I0
sVSnsFlag
p252
I0
sVMemberCount
p253
I3
sVOwnerUin
p254
I0
sVAlias
p255
g52
sg163
NsVSignature
p256
g52
sVContactFlag
p257
I0
sVNickName
p258
V\u6d4b\u8bd5\u673a\u5668\u4eba
p259
sVRemarkPYQuanPin
p260
g52
sVHeadImgUrl
p261
V/cgi-bin/mmwebwx-bin/webwxgetheadimg?seq=0&username=@@519cbf9236ce8a829f2ba09d7acfe8b6f36de33f1e2580d987d9ed1bc43ed707&skey=@crypt_7ea77ac1_3570f7b3ee4d6e0847347e65cf08ed2c
p262
sVUin
p263
I0
sVStarFriend
p264
I0
sVStatues
p265
I1
stp266
Rp267
I1
batp268
Rp269
I1
bsS'nickName'
p270
g74
sS'mpList'
p271
g34
(g35
g36
(lp272
g34
(citchat.storage.templates
MassivePlatform
p273
g39
(dp274
VUserName
p275
V@4ef31155ae1cd157a71e2991dc4af516
p276
sVCity
p277
V\u5e7f\u5dde
p278
sVSnsFlag
p279
I0
sVDisplayName
p280
g52
sVUniFriend
p281
I0
sVMemberCount
p282
I0
sVOwnerUin
p283
I0
sVMemberList
p284
g50
sVAlias
p285
g52
sVPYQuanPin
p286
Vweixinyouhu
p287
sVSignature
p288
V\u5173\u6ce8\u5fae\u4fe1\u6e38\u620f\u5b98\u65b9\u516c\u4f17\u5e10\u53f7\uff0c\u5373\u65f6\u6536\u53d6\u6e38\u620f\u8baf\u606f\uff0c\u8fd8\u80fd\u67e5\u770b\u5404\u6e38\u620f\u653b\u7565\uff0c\u62a2\u5148\u4f53\u9a8c\u6d3b\u52a8\uff01
p289
sVRemarkPYInitial
p290
g52
sVContactFlag
p291
I3
sVUin
p292
I0
sVNickName
p293
V\u5fae\u4fe1\u6e38\u620f
p294
sVAppAccountFlag
p295
I0
sVVerifyFlag
p296
I24
sVRemarkPYQuanPin
p297
g52
sVHeadImgUrl
p298
V/cgi-bin/mmwebwx-bin/webwxgeticon?seq=627210067&username=@4ef31155ae1cd157a71e2991dc4af516&skey=@crypt_7ea77ac1_3570f7b3ee4d6e0847347e65cf08ed2c
p299
sVKeyWord
p300
Vgh_
p301
sVProvince
p302
V\u5e7f\u4e1c
p303
sVPYInitial
p304
VWXYH
p305
sVRemarkName
p306
g52
sVIsOwner
p307
I0
sVSex
p308
I0
sVStarFriend
p309
I0
sVHideInputBarFlag
p310
I0
sVChatRoomId
p311
I0
sVEncryChatRoomId
p312
g52
sVAttrStatus
p313
I0
sVStatues
p314
I0
stp315
Rp316
I1
batp317
Rp318
I1
bssS'loginInfo'
p319
(dp320
S'SyncKey'
p321
(dp322
VCount
p323
I4
sVList
p324
(lp325
(dp326
VVal
p327
I673811291
sVKey
p328
I1
sa(dp329
VVal
p330
I673811490
sVKey
p331
I2
sa(dp332
VVal
p333
I673810679
sVKey
p334
I3
sa(dp335
VVal
p336
I1539752882
sVKey
p337
I1000
sassS'syncUrl'
p338
S'https://webpush.wx2.qq.com/cgi-bin/mmwebwx-bin'
p339
sS'skey'
p340
V@crypt_7ea77ac1_3570f7b3ee4d6e0847347e65cf08ed2c
p341
sS'wxuin'
p342
V2774260834
p343
sS'synckey'
p344
S'1_673811291|2_673811490|3_673810679|1000_1539752882'
p345
sS'url'
p346
Vhttps://wx2.qq.com/cgi-bin/mmwebwx-bin
p347
sS'pass_ticket'
p348
VDa6kkC4l7pW0PY1sG2mNMHkaK%2BQ9Ishpuns22dDoN5feA0dVX5u1P4bLOUqwEKDq
p349
sS'wxsid'
p350
VVuuZNQVTahvslodo
p351
sS'InviteStartCount'
p352
I40
sS'User'
p353
g34
(g38
g39
(dp354
g41
g31
sg42
g43
sg44
g43
sg45
I0
sg47
g50
sg51
g52
sg53
g52
sg78
I2
sg55
I0
sg56
I0
sg57
g43
sg58
g43
sg59
g52
sg60
g52
sg61
I0
sg62
I0
sg63
I1
sg64
g43
sg65
I0
sg68
I0
sg66
I0
sg67
I0
sg46
I0
sg69
g43
sg70
g71
sg72
I0
sg73
g74
sg75
g52
sg76
g77
sg54
I2774260834
sg79
I0
sg80
I0
stp355
Rp356
I1
bsS'fileUrl'
p357
S'https://file.wx2.qq.com/cgi-bin/mmwebwx-bin'
p358
sS'BaseRequest'
p359
(dp360
g54
g343
sS'Skey'
p361
g341
sS'DeviceID'
p362
g349
sS'Sid'
p363
g351
ssS'deviceid'
p364
S'e164030235342939'
p365
ss.